target datalayout = "e-m:e-p270:32:32-p271:32:32-p272:64:64-i64:64-i128:128-f80:128-n8:16:32:64-S128"
target triple = "x86_64-pc-linux-gnu"

%struct.Abc_Ntk_t_ = type { i32, i32, ptr, ptr, ptr, ptr, ptr, ptr, ptr, ptr, ptr, ptr, ptr, [11 x i32], i32, i32, i32, i32, ptr, i32, ptr, ptr, i32, i32, i32, double, i32, %struct.Vec_Int_t_, ptr, ptr, ptr, ptr, ptr, float, i32, ptr, ptr, ptr, ptr, ptr, ptr, ptr, ptr, ptr, ptr, ptr, ptr, ptr, ptr, ptr, ptr, ptr, ptr, ptr, ptr, ptr, ptr }
%struct.Vec_Int_t_ = type { i32, i32, ptr }

; Function Attrs: inlinehint nounwind uwtable
define internal i32 @Abc_NtkIsStrash(ptr noundef %0) #4 {
  %2 = alloca ptr, align 8
  store ptr %0, ptr %2, align 8, !tbaa !3
  %3 = load ptr, ptr %2, align 8, !tbaa !3
  %4 = getelementptr inbounds nuw %struct.Abc_Ntk_t_, ptr %3, i32 0, i32 0
  %5 = load i32, ptr %4, align 8, !tbaa !90
  %6 = icmp eq i32 %5, 3
  %7 = zext i1 %6 to i32
  ret i32 %7
}

; Function Attrs: nounwind uwtable
define i32 @Abc_NtkIsTrueCex(ptr noundef %0, ptr noundef %1) #0 {
  %3 = alloca ptr, align 8
  %4 = alloca ptr, align 8
  %5 = alloca ptr, align 8
  %6 = alloca i32, align 4
  %7 = alloca i32, align 4
  store ptr %0, ptr %3, align 8, !tbaa !3
  store ptr %1, ptr %4, align 8, !tbaa !103
  call void @llvm.lifetime.start.p0(i64 8, ptr %5) #10
  call void @llvm.lifetime.start.p0(i64 4, ptr %6) #10
  store i32 0, ptr %6, align 4, !tbaa !8
  call void @llvm.lifetime.start.p0(i64 4, ptr %7) #10
  store i32 0, ptr %7, align 4, !tbaa !8
  %8 = load ptr, ptr %3, align 8, !tbaa !3
  %9 = call i32 @Abc_NtkIsStrash(ptr noundef %8)
  %10 = icmp ne i32 %9, 0
  br i1 %10, label %14, label %11

11:                                               ; preds = %2
  %12 = load ptr, ptr %3, align 8, !tbaa !3
  %13 = call ptr @Abc_NtkStrash(ptr noundef %12, i32 noundef 0, i32 noundef 0, i32 noundef 0)
  store ptr %13, ptr %3, align 8, !tbaa !3
  store i32 1, ptr %7, align 4, !tbaa !8
  br label %14

14:                                               ; preds = %11, %2
  %15 = load ptr, ptr %3, align 8, !tbaa !3
  %16 = call ptr @Abc_NtkToDar(ptr noundef %15, i32 noundef 0, i32 noundef 1)
  store ptr %16, ptr %5, align 8, !tbaa !104
  %17 = load ptr, ptr %5, align 8, !tbaa !104
  %18 = icmp ne ptr %17, null
  br i1 %18, label %19, label %24

19:                                               ; preds = %14
  %20 = load ptr, ptr %5, align 8, !tbaa !104
  %21 = load ptr, ptr %4, align 8, !tbaa !103
  %22 = call i32 @Saig_ManVerifyCex(ptr noundef %20, ptr noundef %21)
  store i32 %22, ptr %6, align 4, !tbaa !8
  %23 = load ptr, ptr %5, align 8, !tbaa !104
  call void @Aig_ManStop(ptr noundef %23)
  br label %24

24:                                               ; preds = %19, %14
  %25 = load i32, ptr %7, align 4, !tbaa !8
  %26 = icmp ne i32 %25, 0
  br i1 %26, label %27, label %29

27:                                               ; preds = %24
  %28 = load ptr, ptr %3, align 8, !tbaa !3
  call void @Abc_NtkDelete(ptr noundef %28)
  br label %29

29:                                               ; preds = %27, %24
  %30 = load i32, ptr %6, align 4, !tbaa !8
  call void @llvm.lifetime.end.p0(i64 4, ptr %7) #10
  call void @llvm.lifetime.end.p0(i64 4, ptr %6) #10
  call void @llvm.lifetime.end.p0(i64 8, ptr %5) #10
  ret i32 %30
}