; Function Attrs: nounwind uwtable
define i32 @Abc_NtkIsTrueCex(ptr noundef %0, ptr noundef %1) local_unnamed_addr #0 {
  %.val = load i32, ptr %0, align 8, !tbaa !47
  %.not = icmp eq i32 %.val, 3
  br i1 %.not, label %5, label %3

3:                                                ; preds = %2
  %4 = tail call ptr @Abc_NtkStrash(ptr noundef nonnull %0, i32 noundef 0, i32 noundef 0, i32 noundef 0) #15
  br label %5

5:                                                ; preds = %3, %2
  %.010 = phi ptr [ %0, %2 ], [ %4, %3 ]
  %6 = tail call ptr @Abc_NtkToDar(ptr noundef %.010, i32 noundef 0, i32 noundef 1) #15
  %.not12 = icmp eq ptr %6, null
  br i1 %.not12, label %9, label %7

7:                                                ; preds = %5
  %8 = tail call i32 @Saig_ManVerifyCex(ptr noundef nonnull %6, ptr noundef %1) #15
  tail call void @Aig_ManStop(ptr noundef nonnull %6) #15
  br label %9

9:                                                ; preds = %7, %5
  %.09 = phi i32 [ %8, %7 ], [ 0, %5 ]
  br i1 %.not, label %11, label %10

10:                                               ; preds = %9
  tail call void @Abc_NtkDelete(ptr noundef %.010) #15
  br label %11

11:                                               ; preds = %10, %9
  ret i32 %.09
}